; Function Attrs: mustprogress nofree nosync nounwind willreturn memory(read, inaccessiblemem: none) uwtable
define noundef zeroext i1 @_ZN5Yosys3AST7AstNode20is_simple_const_exprEv(ptr noundef nonnull readonly align 8 captures(none) dereferenceable(284) %0) local_unnamed_addr #15 align 2 {
  %2 = getelementptr inbounds nuw i8, ptr %0, i64 4
  %3 = load i32, ptr %2, align 4, !tbaa !49
  %4 = icmp eq i32 %3, 19
  br i1 %4, label %.loopexit, label %5

5:                                                ; preds = %1
  %6 = getelementptr inbounds nuw i8, ptr %0, i64 8
  %7 = load ptr, ptr %6, align 8, !tbaa !50
  %8 = getelementptr inbounds nuw i8, ptr %0, i64 16
  %9 = load ptr, ptr %8, align 8, !tbaa !50
  %.not11 = icmp eq ptr %7, %9
  br i1 %.not11, label %.loopexit, label %.lr.ph

.lr.ph:                                           ; preds = %5, %.lr.ph
  %.sroa.08.012 = phi ptr [ %12, %.lr.ph ], [ %7, %5 ]
  %10 = load ptr, ptr %.sroa.08.012, align 8, !tbaa !51
  %11 = tail call noundef zeroext i1 @_ZN5Yosys3AST7AstNode20is_simple_const_exprEv(ptr noundef nonnull align 8 dereferenceable(284) %10)
  %12 = getelementptr inbounds nuw i8, ptr %.sroa.08.012, i64 8
  %.not = icmp ne ptr %12, %9
  %or.cond.not = select i1 %11, i1 %.not, i1 false
  br i1 %or.cond.not, label %.lr.ph, label %.loopexit

.loopexit:                                        ; preds = %.lr.ph, %5, %1
  %.0 = phi i1 [ false, %1 ], [ true, %5 ], [ %11, %.lr.ph ]
  ret i1 %.0
}